target datalayout = "e-m:e-p270:32:32-p271:32:32-p272:64:64-i64:64-i128:128-f80:128-n8:16:32:64-S128"
target triple = "x86_64-pc-linux-gnu"

%struct.pxr_nc_1_0_ColorSpace = type { %struct.pxr_nc_1_0_ColorSpaceDescriptor, float, float, %struct.pxr_nc_1_0_M33f }
%struct.pxr_nc_1_0_ColorSpaceDescriptor = type { ptr, %struct.pxr_nc_1_0_Chromaticity, %struct.pxr_nc_1_0_Chromaticity, %struct.pxr_nc_1_0_Chromaticity, %struct.pxr_nc_1_0_Chromaticity, float, float }
%struct.pxr_nc_1_0_Chromaticity = type { float, float }
%struct.pxr_nc_1_0_M33f = type { [9 x float] }

@constinit = private constant [9 x float] [float 1.000000e+00, float 0.000000e+00, float 0.000000e+00, float 0.000000e+00, float 1.000000e+00, float 0.000000e+00, float 0.000000e+00, float 0.000000e+00, float 1.000000e+00], align 4
@constinit.18 = private constant [9 x float] [float 1.000000e+00, float 0.000000e+00, float 0.000000e+00, float 0.000000e+00, float 1.000000e+00, float 0.000000e+00, float 0.000000e+00, float 0.000000e+00, float 1.000000e+00], align 4

; Function Attrs: nounwind uwtable
define internal void @NcM3ffInvert(ptr dead_on_unwind noalias writable sret(%struct.pxr_nc_1_0_M33f) align 4 %0, ptr noundef byval(%struct.pxr_nc_1_0_M33f) align 8 %1) #0 {
  %3 = alloca i32, align 4
  %4 = alloca i32, align 4
  %5 = alloca i32, align 4
  %6 = alloca i32, align 4
  %7 = alloca i32, align 4
  %8 = alloca i32, align 4
  %9 = alloca i32, align 4
  %10 = alloca i32, align 4
  %11 = alloca i32, align 4
  %12 = alloca float, align 4
  %13 = alloca float, align 4
  store i32 0, ptr %3, align 4
  store i32 3, ptr %4, align 4
  store i32 6, ptr %5, align 4
  store i32 1, ptr %6, align 4
  store i32 4, ptr %7, align 4
  store i32 7, ptr %8, align 4
  store i32 2, ptr %9, align 4
  store i32 5, ptr %10, align 4
  store i32 8, ptr %11, align 4
  %14 = getelementptr inbounds nuw %struct.pxr_nc_1_0_M33f, ptr %1, i32 0, i32 0
  %15 = getelementptr inbounds [9 x float], ptr %14, i64 0, i64 0
  %16 = load float, ptr %15, align 8
  %17 = getelementptr inbounds nuw %struct.pxr_nc_1_0_M33f, ptr %1, i32 0, i32 0
  %18 = getelementptr inbounds [9 x float], ptr %17, i64 0, i64 4
  %19 = load float, ptr %18, align 8
  %20 = getelementptr inbounds nuw %struct.pxr_nc_1_0_M33f, ptr %1, i32 0, i32 0
  %21 = getelementptr inbounds [9 x float], ptr %20, i64 0, i64 8
  %22 = load float, ptr %21, align 8
  %23 = getelementptr inbounds nuw %struct.pxr_nc_1_0_M33f, ptr %1, i32 0, i32 0
  %24 = getelementptr inbounds [9 x float], ptr %23, i64 0, i64 7
  %25 = load float, ptr %24, align 4
  %26 = getelementptr inbounds nuw %struct.pxr_nc_1_0_M33f, ptr %1, i32 0, i32 0
  %27 = getelementptr inbounds [9 x float], ptr %26, i64 0, i64 5
  %28 = load float, ptr %27, align 4
  %29 = fmul float %25, %28
  %30 = fneg float %29
  %31 = call float @llvm.fmuladd.f32(float %19, float %22, float %30)
  %32 = getelementptr inbounds nuw %struct.pxr_nc_1_0_M33f, ptr %1, i32 0, i32 0
  %33 = getelementptr inbounds [9 x float], ptr %32, i64 0, i64 3
  %34 = load float, ptr %33, align 4
  %35 = getelementptr inbounds nuw %struct.pxr_nc_1_0_M33f, ptr %1, i32 0, i32 0
  %36 = getelementptr inbounds [9 x float], ptr %35, i64 0, i64 1
  %37 = load float, ptr %36, align 4
  %38 = getelementptr inbounds nuw %struct.pxr_nc_1_0_M33f, ptr %1, i32 0, i32 0
  %39 = getelementptr inbounds [9 x float], ptr %38, i64 0, i64 8
  %40 = load float, ptr %39, align 8
  %41 = getelementptr inbounds nuw %struct.pxr_nc_1_0_M33f, ptr %1, i32 0, i32 0
  %42 = getelementptr inbounds [9 x float], ptr %41, i64 0, i64 7
  %43 = load float, ptr %42, align 4
  %44 = getelementptr inbounds nuw %struct.pxr_nc_1_0_M33f, ptr %1, i32 0, i32 0
  %45 = getelementptr inbounds [9 x float], ptr %44, i64 0, i64 2
  %46 = load float, ptr %45, align 8
  %47 = fmul float %43, %46
  %48 = fneg float %47
  %49 = call float @llvm.fmuladd.f32(float %37, float %40, float %48)
  %50 = fmul float %34, %49
  %51 = fneg float %50
  %52 = call float @llvm.fmuladd.f32(float %16, float %31, float %51)
  %53 = getelementptr inbounds nuw %struct.pxr_nc_1_0_M33f, ptr %1, i32 0, i32 0
  %54 = getelementptr inbounds [9 x float], ptr %53, i64 0, i64 6
  %55 = load float, ptr %54, align 8
  %56 = getelementptr inbounds nuw %struct.pxr_nc_1_0_M33f, ptr %1, i32 0, i32 0
  %57 = getelementptr inbounds [9 x float], ptr %56, i64 0, i64 1
  %58 = load float, ptr %57, align 4
  %59 = getelementptr inbounds nuw %struct.pxr_nc_1_0_M33f, ptr %1, i32 0, i32 0
  %60 = getelementptr inbounds [9 x float], ptr %59, i64 0, i64 5
  %61 = load float, ptr %60, align 4
  %62 = getelementptr inbounds nuw %struct.pxr_nc_1_0_M33f, ptr %1, i32 0, i32 0
  %63 = getelementptr inbounds [9 x float], ptr %62, i64 0, i64 4
  %64 = load float, ptr %63, align 8
  %65 = getelementptr inbounds nuw %struct.pxr_nc_1_0_M33f, ptr %1, i32 0, i32 0
  %66 = getelementptr inbounds [9 x float], ptr %65, i64 0, i64 2
  %67 = load float, ptr %66, align 8
  %68 = fmul float %64, %67
  %69 = fneg float %68
  %70 = call float @llvm.fmuladd.f32(float %58, float %61, float %69)
  %71 = call float @llvm.fmuladd.f32(float %55, float %70, float %52)
  store float %71, ptr %12, align 4
  %72 = load float, ptr %12, align 4
  %73 = fpext float %72 to double
  %74 = fdiv double 1.000000e+00, %73
  %75 = fptrunc double %74 to float
  store float %75, ptr %13, align 4
  %76 = getelementptr inbounds nuw %struct.pxr_nc_1_0_M33f, ptr %1, i32 0, i32 0
  %77 = getelementptr inbounds [9 x float], ptr %76, i64 0, i64 4
  %78 = load float, ptr %77, align 8
  %79 = getelementptr inbounds nuw %struct.pxr_nc_1_0_M33f, ptr %1, i32 0, i32 0
  %80 = getelementptr inbounds [9 x float], ptr %79, i64 0, i64 8
  %81 = load float, ptr %80, align 8
  %82 = getelementptr inbounds nuw %struct.pxr_nc_1_0_M33f, ptr %1, i32 0, i32 0
  %83 = getelementptr inbounds [9 x float], ptr %82, i64 0, i64 7
  %84 = load float, ptr %83, align 4
  %85 = getelementptr inbounds nuw %struct.pxr_nc_1_0_M33f, ptr %1, i32 0, i32 0
  %86 = getelementptr inbounds [9 x float], ptr %85, i64 0, i64 5
  %87 = load float, ptr %86, align 4
  %88 = fmul float %84, %87
  %89 = fneg float %88
  %90 = call float @llvm.fmuladd.f32(float %78, float %81, float %89)
  %91 = load float, ptr %13, align 4
  %92 = fmul float %90, %91
  %93 = getelementptr inbounds nuw %struct.pxr_nc_1_0_M33f, ptr %0, i32 0, i32 0
  %94 = getelementptr inbounds [9 x float], ptr %93, i64 0, i64 0
  store float %92, ptr %94, align 4
  %95 = getelementptr inbounds nuw %struct.pxr_nc_1_0_M33f, ptr %1, i32 0, i32 0
  %96 = getelementptr inbounds [9 x float], ptr %95, i64 0, i64 6
  %97 = load float, ptr %96, align 8
  %98 = getelementptr inbounds nuw %struct.pxr_nc_1_0_M33f, ptr %1, i32 0, i32 0
  %99 = getelementptr inbounds [9 x float], ptr %98, i64 0, i64 5
  %100 = load float, ptr %99, align 4
  %101 = getelementptr inbounds nuw %struct.pxr_nc_1_0_M33f, ptr %1, i32 0, i32 0
  %102 = getelementptr inbounds [9 x float], ptr %101, i64 0, i64 3
  %103 = load float, ptr %102, align 4
  %104 = getelementptr inbounds nuw %struct.pxr_nc_1_0_M33f, ptr %1, i32 0, i32 0
  %105 = getelementptr inbounds [9 x float], ptr %104, i64 0, i64 8
  %106 = load float, ptr %105, align 8
  %107 = fmul float %103, %106
  %108 = fneg float %107
  %109 = call float @llvm.fmuladd.f32(float %97, float %100, float %108)
  %110 = load float, ptr %13, align 4
  %111 = fmul float %109, %110
  %112 = getelementptr inbounds nuw %struct.pxr_nc_1_0_M33f, ptr %0, i32 0, i32 0
  %113 = getelementptr inbounds [9 x float], ptr %112, i64 0, i64 3
  store float %111, ptr %113, align 4
  %114 = getelementptr inbounds nuw %struct.pxr_nc_1_0_M33f, ptr %1, i32 0, i32 0
  %115 = getelementptr inbounds [9 x float], ptr %114, i64 0, i64 3
  %116 = load float, ptr %115, align 4
  %117 = getelementptr inbounds nuw %struct.pxr_nc_1_0_M33f, ptr %1, i32 0, i32 0
  %118 = getelementptr inbounds [9 x float], ptr %117, i64 0, i64 7
  %119 = load float, ptr %118, align 4
  %120 = getelementptr inbounds nuw %struct.pxr_nc_1_0_M33f, ptr %1, i32 0, i32 0
  %121 = getelementptr inbounds [9 x float], ptr %120, i64 0, i64 6
  %122 = load float, ptr %121, align 8
  %123 = getelementptr inbounds nuw %struct.pxr_nc_1_0_M33f, ptr %1, i32 0, i32 0
  %124 = getelementptr inbounds [9 x float], ptr %123, i64 0, i64 4
  %125 = load float, ptr %124, align 8
  %126 = fmul float %122, %125
  %127 = fneg float %126
  %128 = call float @llvm.fmuladd.f32(float %116, float %119, float %127)
  %129 = load float, ptr %13, align 4
  %130 = fmul float %128, %129
  %131 = getelementptr inbounds nuw %struct.pxr_nc_1_0_M33f, ptr %0, i32 0, i32 0
  %132 = getelementptr inbounds [9 x float], ptr %131, i64 0, i64 6
  store float %130, ptr %132, align 4
  %133 = getelementptr inbounds nuw %struct.pxr_nc_1_0_M33f, ptr %1, i32 0, i32 0
  %134 = getelementptr inbounds [9 x float], ptr %133, i64 0, i64 7
  %135 = load float, ptr %134, align 4
  %136 = getelementptr inbounds nuw %struct.pxr_nc_1_0_M33f, ptr %1, i32 0, i32 0
  %137 = getelementptr inbounds [9 x float], ptr %136, i64 0, i64 2
  %138 = load float, ptr %137, align 8
  %139 = getelementptr inbounds nuw %struct.pxr_nc_1_0_M33f, ptr %1, i32 0, i32 0
  %140 = getelementptr inbounds [9 x float], ptr %139, i64 0, i64 1
  %141 = load float, ptr %140, align 4
  %142 = getelementptr inbounds nuw %struct.pxr_nc_1_0_M33f, ptr %1, i32 0, i32 0
  %143 = getelementptr inbounds [9 x float], ptr %142, i64 0, i64 8
  %144 = load float, ptr %143, align 8
  %145 = fmul float %141, %144
  %146 = fneg float %145
  %147 = call float @llvm.fmuladd.f32(float %135, float %138, float %146)
  %148 = load float, ptr %13, align 4
  %149 = fmul float %147, %148
  %150 = getelementptr inbounds nuw %struct.pxr_nc_1_0_M33f, ptr %0, i32 0, i32 0
  %151 = getelementptr inbounds [9 x float], ptr %150, i64 0, i64 1
  store float %149, ptr %151, align 4
  %152 = getelementptr inbounds nuw %struct.pxr_nc_1_0_M33f, ptr %1, i32 0, i32 0
  %153 = getelementptr inbounds [9 x float], ptr %152, i64 0, i64 0
  %154 = load float, ptr %153, align 8
  %155 = getelementptr inbounds nuw %struct.pxr_nc_1_0_M33f, ptr %1, i32 0, i32 0
  %156 = getelementptr inbounds [9 x float], ptr %155, i64 0, i64 8
  %157 = load float, ptr %156, align 8
  %158 = getelementptr inbounds nuw %struct.pxr_nc_1_0_M33f, ptr %1, i32 0, i32 0
  %159 = getelementptr inbounds [9 x float], ptr %158, i64 0, i64 6
  %160 = load float, ptr %159, align 8
  %161 = getelementptr inbounds nuw %struct.pxr_nc_1_0_M33f, ptr %1, i32 0, i32 0
  %162 = getelementptr inbounds [9 x float], ptr %161, i64 0, i64 2
  %163 = load float, ptr %162, align 8
  %164 = fmul float %160, %163
  %165 = fneg float %164
  %166 = call float @llvm.fmuladd.f32(float %154, float %157, float %165)
  %167 = load float, ptr %13, align 4
  %168 = fmul float %166, %167
  %169 = getelementptr inbounds nuw %struct.pxr_nc_1_0_M33f, ptr %0, i32 0, i32 0
  %170 = getelementptr inbounds [9 x float], ptr %169, i64 0, i64 4
  store float %168, ptr %170, align 4
  %171 = getelementptr inbounds nuw %struct.pxr_nc_1_0_M33f, ptr %1, i32 0, i32 0
  %172 = getelementptr inbounds [9 x float], ptr %171, i64 0, i64 6
  %173 = load float, ptr %172, align 8
  %174 = getelementptr inbounds nuw %struct.pxr_nc_1_0_M33f, ptr %1, i32 0, i32 0
  %175 = getelementptr inbounds [9 x float], ptr %174, i64 0, i64 1
  %176 = load float, ptr %175, align 4
  %177 = getelementptr inbounds nuw %struct.pxr_nc_1_0_M33f, ptr %1, i32 0, i32 0
  %178 = getelementptr inbounds [9 x float], ptr %177, i64 0, i64 0
  %179 = load float, ptr %178, align 8
  %180 = getelementptr inbounds nuw %struct.pxr_nc_1_0_M33f, ptr %1, i32 0, i32 0
  %181 = getelementptr inbounds [9 x float], ptr %180, i64 0, i64 7
  %182 = load float, ptr %181, align 4
  %183 = fmul float %179, %182
  %184 = fneg float %183
  %185 = call float @llvm.fmuladd.f32(float %173, float %176, float %184)
  %186 = load float, ptr %13, align 4
  %187 = fmul float %185, %186
  %188 = getelementptr inbounds nuw %struct.pxr_nc_1_0_M33f, ptr %0, i32 0, i32 0
  %189 = getelementptr inbounds [9 x float], ptr %188, i64 0, i64 7
  store float %187, ptr %189, align 4
  %190 = getelementptr inbounds nuw %struct.pxr_nc_1_0_M33f, ptr %1, i32 0, i32 0
  %191 = getelementptr inbounds [9 x float], ptr %190, i64 0, i64 1
  %192 = load float, ptr %191, align 4
  %193 = getelementptr inbounds nuw %struct.pxr_nc_1_0_M33f, ptr %1, i32 0, i32 0
  %194 = getelementptr inbounds [9 x float], ptr %193, i64 0, i64 5
  %195 = load float, ptr %194, align 4
  %196 = getelementptr inbounds nuw %struct.pxr_nc_1_0_M33f, ptr %1, i32 0, i32 0
  %197 = getelementptr inbounds [9 x float], ptr %196, i64 0, i64 4
  %198 = load float, ptr %197, align 8
  %199 = getelementptr inbounds nuw %struct.pxr_nc_1_0_M33f, ptr %1, i32 0, i32 0
  %200 = getelementptr inbounds [9 x float], ptr %199, i64 0, i64 2
  %201 = load float, ptr %200, align 8
  %202 = fmul float %198, %201
  %203 = fneg float %202
  %204 = call float @llvm.fmuladd.f32(float %192, float %195, float %203)
  %205 = load float, ptr %13, align 4
  %206 = fmul float %204, %205
  %207 = getelementptr inbounds nuw %struct.pxr_nc_1_0_M33f, ptr %0, i32 0, i32 0
  %208 = getelementptr inbounds [9 x float], ptr %207, i64 0, i64 2
  store float %206, ptr %208, align 4
  %209 = getelementptr inbounds nuw %struct.pxr_nc_1_0_M33f, ptr %1, i32 0, i32 0
  %210 = getelementptr inbounds [9 x float], ptr %209, i64 0, i64 3
  %211 = load float, ptr %210, align 4
  %212 = getelementptr inbounds nuw %struct.pxr_nc_1_0_M33f, ptr %1, i32 0, i32 0
  %213 = getelementptr inbounds [9 x float], ptr %212, i64 0, i64 2
  %214 = load float, ptr %213, align 8
  %215 = getelementptr inbounds nuw %struct.pxr_nc_1_0_M33f, ptr %1, i32 0, i32 0
  %216 = getelementptr inbounds [9 x float], ptr %215, i64 0, i64 0
  %217 = load float, ptr %216, align 8
  %218 = getelementptr inbounds nuw %struct.pxr_nc_1_0_M33f, ptr %1, i32 0, i32 0
  %219 = getelementptr inbounds [9 x float], ptr %218, i64 0, i64 5
  %220 = load float, ptr %219, align 4
  %221 = fmul float %217, %220
  %222 = fneg float %221
  %223 = call float @llvm.fmuladd.f32(float %211, float %214, float %222)
  %224 = load float, ptr %13, align 4
  %225 = fmul float %223, %224
  %226 = getelementptr inbounds nuw %struct.pxr_nc_1_0_M33f, ptr %0, i32 0, i32 0
  %227 = getelementptr inbounds [9 x float], ptr %226, i64 0, i64 5
  store float %225, ptr %227, align 4
  %228 = getelementptr inbounds nuw %struct.pxr_nc_1_0_M33f, ptr %1, i32 0, i32 0
  %229 = getelementptr inbounds [9 x float], ptr %228, i64 0, i64 0
  %230 = load float, ptr %229, align 8
  %231 = getelementptr inbounds nuw %struct.pxr_nc_1_0_M33f, ptr %1, i32 0, i32 0
  %232 = getelementptr inbounds [9 x float], ptr %231, i64 0, i64 4
  %233 = load float, ptr %232, align 8
  %234 = getelementptr inbounds nuw %struct.pxr_nc_1_0_M33f, ptr %1, i32 0, i32 0
  %235 = getelementptr inbounds [9 x float], ptr %234, i64 0, i64 3
  %236 = load float, ptr %235, align 4
  %237 = getelementptr inbounds nuw %struct.pxr_nc_1_0_M33f, ptr %1, i32 0, i32 0
  %238 = getelementptr inbounds [9 x float], ptr %237, i64 0, i64 1
  %239 = load float, ptr %238, align 4
  %240 = fmul float %236, %239
  %241 = fneg float %240
  %242 = call float @llvm.fmuladd.f32(float %230, float %233, float %241)
  %243 = load float, ptr %13, align 4
  %244 = fmul float %242, %243
  %245 = getelementptr inbounds nuw %struct.pxr_nc_1_0_M33f, ptr %0, i32 0, i32 0
  %246 = getelementptr inbounds [9 x float], ptr %245, i64 0, i64 8
  store float %244, ptr %246, align 4
  ret void
}

; Function Attrs: nounwind uwtable
define void @pxr_nc_1_0_GetRGBtoXYZMatrix(ptr dead_on_unwind noalias writable sret(%struct.pxr_nc_1_0_M33f) align 4 %0, ptr noundef %1) #0 {
  %3 = alloca ptr, align 8
  store ptr %1, ptr %3, align 8
  %4 = load ptr, ptr %3, align 8
  %5 = icmp ne ptr %4, null
  br i1 %5, label %8, label %6

6:                                                ; preds = %2
  %7 = getelementptr inbounds nuw %struct.pxr_nc_1_0_M33f, ptr %0, i32 0, i32 0
  call void @llvm.memcpy.p0.p0.i64(ptr align 4 %7, ptr align 4 @constinit, i64 36, i1 false)
  br label %11

8:                                                ; preds = %2
  %9 = load ptr, ptr %3, align 8
  %10 = getelementptr inbounds nuw %struct.pxr_nc_1_0_ColorSpace, ptr %9, i32 0, i32 3
  call void @llvm.memcpy.p0.p0.i64(ptr align 4 %0, ptr align 8 %10, i64 36, i1 false)
  br label %11

11:                                               ; preds = %8, %6
  ret void
}

; Function Attrs: nounwind uwtable
define void @pxr_nc_1_0_GetXYZtoRGBMatrix(ptr dead_on_unwind noalias writable sret(%struct.pxr_nc_1_0_M33f) align 4 %0, ptr noundef %1) #0 {
  %3 = alloca ptr, align 8
  %4 = alloca %struct.pxr_nc_1_0_M33f, align 8
  store ptr %1, ptr %3, align 8
  %5 = load ptr, ptr %3, align 8
  %6 = icmp ne ptr %5, null
  br i1 %6, label %9, label %7

7:                                                ; preds = %2
  %8 = getelementptr inbounds nuw %struct.pxr_nc_1_0_M33f, ptr %0, i32 0, i32 0
  call void @llvm.memcpy.p0.p0.i64(ptr align 4 %8, ptr align 4 @constinit.18, i64 36, i1 false)
  br label %11

9:                                                ; preds = %2
  %10 = load ptr, ptr %3, align 8
  call void @pxr_nc_1_0_GetRGBtoXYZMatrix(ptr dead_on_unwind writable sret(%struct.pxr_nc_1_0_M33f) align 4 %4, ptr noundef %10)
  call void @NcM3ffInvert(ptr dead_on_unwind writable sret(%struct.pxr_nc_1_0_M33f) align 4 %0, ptr noundef byval(%struct.pxr_nc_1_0_M33f) align 8 %4)
  br label %11

11:                                               ; preds = %9, %7
  ret void
}