; Function Attrs: mustprogress nofree norecurse nosync nounwind willreturn memory(argmem: readwrite) uwtable
define void @pxr_nc_1_0_GetXYZtoRGBMatrix(ptr dead_on_unwind noalias nocapture writable writeonly sret(%struct.pxr_nc_1_0_M33f) align 4 %0, ptr noundef readonly %1) local_unnamed_addr #16 {
  %.not = icmp eq ptr %1, null
  br i1 %.not, label %3, label %pxr_nc_1_0_GetRGBtoXYZMatrix.exit

3:                                                ; preds = %2
  tail call void @llvm.memcpy.p0.p0.i64(ptr noundef nonnull align 4 dereferenceable(36) %0, ptr noundef nonnull align 4 dereferenceable(36) @constinit.19, i64 36, i1 false)
  br label %53

pxr_nc_1_0_GetRGBtoXYZMatrix.exit:                ; preds = %2
  %4 = getelementptr inbounds nuw i8, ptr %1, i64 56
  %.sroa.0.sroa.0.0.copyload = load float, ptr %4, align 8
  %.sroa.0.sroa.3.0..sroa_idx = getelementptr inbounds i8, ptr %1, i64 60
  %.sroa.0.sroa.3.0.copyload = load float, ptr %.sroa.0.sroa.3.0..sroa_idx, align 4
  %.sroa.0.sroa.4.0..sroa_idx = getelementptr inbounds i8, ptr %1, i64 64
  %.sroa.0.sroa.4.0.copyload = load float, ptr %.sroa.0.sroa.4.0..sroa_idx, align 8
  %.sroa.0.sroa.5.0..sroa_idx = getelementptr inbounds i8, ptr %1, i64 68
  %.sroa.0.sroa.5.0.copyload = load float, ptr %.sroa.0.sroa.5.0..sroa_idx, align 4
  %.sroa.0.sroa.6.0..sroa_idx = getelementptr inbounds i8, ptr %1, i64 72
  %.sroa.0.sroa.6.0.copyload = load float, ptr %.sroa.0.sroa.6.0..sroa_idx, align 8
  %.sroa.0.sroa.7.0..sroa_idx = getelementptr inbounds i8, ptr %1, i64 76
  %.sroa.0.sroa.7.0.copyload = load float, ptr %.sroa.0.sroa.7.0..sroa_idx, align 4
  %.sroa.0.sroa.8.0..sroa_idx = getelementptr inbounds i8, ptr %1, i64 80
  %.sroa.0.sroa.8.0.copyload = load float, ptr %.sroa.0.sroa.8.0..sroa_idx, align 8
  %.sroa.0.sroa.9.0..sroa_idx = getelementptr inbounds i8, ptr %1, i64 84
  %.sroa.0.sroa.9.0.copyload = load float, ptr %.sroa.0.sroa.9.0..sroa_idx, align 4
  %.sroa.0.sroa.10.0..sroa_idx = getelementptr inbounds i8, ptr %1, i64 88
  %.sroa.0.sroa.10.0.copyload = load float, ptr %.sroa.0.sroa.10.0..sroa_idx, align 8
  %5 = fneg float %.sroa.0.sroa.7.0.copyload
  %6 = fmul float %.sroa.0.sroa.9.0.copyload, %5
  %7 = tail call float @llvm.fmuladd.f32(float %.sroa.0.sroa.6.0.copyload, float %.sroa.0.sroa.10.0.copyload, float %6)
  %8 = fneg float %.sroa.0.sroa.4.0.copyload
  %9 = fmul float %.sroa.0.sroa.9.0.copyload, %8
  %10 = tail call float @llvm.fmuladd.f32(float %.sroa.0.sroa.3.0.copyload, float %.sroa.0.sroa.10.0.copyload, float %9)
  %11 = fneg float %10
  %12 = fmul float %.sroa.0.sroa.5.0.copyload, %11
  %13 = tail call float @llvm.fmuladd.f32(float %.sroa.0.sroa.0.0.copyload, float %7, float %12)
  %14 = fmul float %.sroa.0.sroa.6.0.copyload, %8
  %15 = tail call float @llvm.fmuladd.f32(float %.sroa.0.sroa.3.0.copyload, float %.sroa.0.sroa.7.0.copyload, float %14)
  %16 = tail call float @llvm.fmuladd.f32(float %.sroa.0.sroa.8.0.copyload, float %15, float %13)
  %17 = fdiv float 1.000000e+00, %16
  %18 = fmul float %7, %17
  store float %18, ptr %0, align 4, !alias.scope !8
  %19 = fneg float %.sroa.0.sroa.10.0.copyload
  %20 = fmul float %.sroa.0.sroa.5.0.copyload, %19
  %21 = tail call float @llvm.fmuladd.f32(float %.sroa.0.sroa.8.0.copyload, float %.sroa.0.sroa.7.0.copyload, float %20)
  %22 = fmul float %21, %17
  %23 = getelementptr inbounds i8, ptr %0, i64 12
  store float %22, ptr %23, align 4, !alias.scope !8
  %24 = fneg float %.sroa.0.sroa.6.0.copyload
  %25 = fmul float %.sroa.0.sroa.8.0.copyload, %24
  %26 = tail call float @llvm.fmuladd.f32(float %.sroa.0.sroa.5.0.copyload, float %.sroa.0.sroa.9.0.copyload, float %25)
  %27 = fmul float %26, %17
  %28 = getelementptr inbounds i8, ptr %0, i64 24
  store float %27, ptr %28, align 4, !alias.scope !8
  %29 = fmul float %.sroa.0.sroa.3.0.copyload, %19
  %30 = tail call float @llvm.fmuladd.f32(float %.sroa.0.sroa.9.0.copyload, float %.sroa.0.sroa.4.0.copyload, float %29)
  %31 = fmul float %30, %17
  %32 = getelementptr inbounds i8, ptr %0, i64 4
  store float %31, ptr %32, align 4, !alias.scope !8
  %33 = fmul float %.sroa.0.sroa.8.0.copyload, %8
  %34 = tail call float @llvm.fmuladd.f32(float %.sroa.0.sroa.0.0.copyload, float %.sroa.0.sroa.10.0.copyload, float %33)
  %35 = fmul float %34, %17
  %36 = getelementptr inbounds i8, ptr %0, i64 16
  store float %35, ptr %36, align 4, !alias.scope !8
  %37 = fneg float %.sroa.0.sroa.9.0.copyload
  %38 = fmul float %.sroa.0.sroa.0.0.copyload, %37
  %39 = tail call float @llvm.fmuladd.f32(float %.sroa.0.sroa.8.0.copyload, float %.sroa.0.sroa.3.0.copyload, float %38)
  %40 = fmul float %39, %17
  %41 = getelementptr inbounds i8, ptr %0, i64 28
  store float %40, ptr %41, align 4, !alias.scope !8
  %42 = fmul float %15, %17
  %43 = getelementptr inbounds i8, ptr %0, i64 8
  store float %42, ptr %43, align 4, !alias.scope !8
  %44 = fmul float %.sroa.0.sroa.0.0.copyload, %5
  %45 = tail call float @llvm.fmuladd.f32(float %.sroa.0.sroa.5.0.copyload, float %.sroa.0.sroa.4.0.copyload, float %44)
  %46 = fmul float %45, %17
  %47 = getelementptr inbounds i8, ptr %0, i64 20
  store float %46, ptr %47, align 4, !alias.scope !8
  %48 = fneg float %.sroa.0.sroa.3.0.copyload
  %49 = fmul float %.sroa.0.sroa.5.0.copyload, %48
  %50 = tail call float @llvm.fmuladd.f32(float %.sroa.0.sroa.0.0.copyload, float %.sroa.0.sroa.6.0.copyload, float %49)
  %51 = fmul float %50, %17
  %52 = getelementptr inbounds i8, ptr %0, i64 32
  store float %51, ptr %52, align 4, !alias.scope !8
  br label %53

53:                                               ; preds = %pxr_nc_1_0_GetRGBtoXYZMatrix.exit, %3
  ret void
}